target datalayout = "e-m:e-p270:32:32-p271:32:32-p272:64:64-i64:64-i128:128-f80:128-n8:16:32:64-S128"
target triple = "x86_64-pc-linux-gnu"

%struct.merged_subiter = type { %struct.reftable_iterator, %struct.reftable_record }
%struct.reftable_iterator = type { ptr, ptr }
%struct.reftable_record = type { i8, %union.anon }
%union.anon = type { %struct.reftable_log_record }
%struct.reftable_log_record = type { ptr, i64, i64, i32, %union.anon.1 }
%union.anon.1 = type { %struct.anon.2 }
%struct.anon.2 = type { [32 x i8], [32 x i8], ptr, ptr, i64, i16, ptr, i64 }
%struct.merged_iter = type { ptr, %struct.merged_iter_pqueue, i64, i32, i64 }
%struct.merged_iter_pqueue = type { ptr, i64, i64 }

; Function Attrs: nounwind uwtable
define internal void @merged_iter_close(ptr noundef %0) #0 {
  %2 = alloca ptr, align 8
  %3 = alloca ptr, align 8
  %4 = alloca i64, align 8
  store ptr %0, ptr %2, align 8, !tbaa !48
  call void @llvm.lifetime.start.p0(i64 8, ptr %3) #6
  %5 = load ptr, ptr %2, align 8, !tbaa !48
  store ptr %5, ptr %3, align 8, !tbaa !32
  %6 = load ptr, ptr %3, align 8, !tbaa !32
  %7 = getelementptr inbounds nuw %struct.merged_iter, ptr %6, i32 0, i32 1
  call void @merged_iter_pqueue_release(ptr noundef %7)
  call void @llvm.lifetime.start.p0(i64 8, ptr %4) #6
  store i64 0, ptr %4, align 8, !tbaa !11
  br label %8

8:                                                ; preds = %28, %1
  %9 = load i64, ptr %4, align 8, !tbaa !11
  %10 = load ptr, ptr %3, align 8, !tbaa !32
  %11 = getelementptr inbounds nuw %struct.merged_iter, ptr %10, i32 0, i32 2
  %12 = load i64, ptr %11, align 8, !tbaa !42
  %13 = icmp ult i64 %9, %12
  br i1 %13, label %15, label %14

14:                                               ; preds = %8
  call void @llvm.lifetime.end.p0(i64 8, ptr %4) #6
  br label %31

15:                                               ; preds = %8
  %16 = load ptr, ptr %3, align 8, !tbaa !32
  %17 = getelementptr inbounds nuw %struct.merged_iter, ptr %16, i32 0, i32 0
  %18 = load ptr, ptr %17, align 8, !tbaa !41
  %19 = load i64, ptr %4, align 8, !tbaa !11
  %20 = getelementptr inbounds nuw %struct.merged_subiter, ptr %18, i64 %19
  %21 = getelementptr inbounds nuw %struct.merged_subiter, ptr %20, i32 0, i32 0
  call void @reftable_iterator_destroy(ptr noundef %21)
  %22 = load ptr, ptr %3, align 8, !tbaa !32
  %23 = getelementptr inbounds nuw %struct.merged_iter, ptr %22, i32 0, i32 0
  %24 = load ptr, ptr %23, align 8, !tbaa !41
  %25 = load i64, ptr %4, align 8, !tbaa !11
  %26 = getelementptr inbounds nuw %struct.merged_subiter, ptr %24, i64 %25
  %27 = getelementptr inbounds nuw %struct.merged_subiter, ptr %26, i32 0, i32 1
  call void @reftable_record_release(ptr noundef %27)
  br label %28

28:                                               ; preds = %15
  %29 = load i64, ptr %4, align 8, !tbaa !11
  %30 = add i64 %29, 1
  store i64 %30, ptr %4, align 8, !tbaa !11
  br label %8, !llvm.loop !51

31:                                               ; preds = %14
  %32 = load ptr, ptr %3, align 8, !tbaa !32
  %33 = getelementptr inbounds nuw %struct.merged_iter, ptr %32, i32 0, i32 0
  %34 = load ptr, ptr %33, align 8, !tbaa !41
  call void @reftable_free(ptr noundef %34)
  call void @llvm.lifetime.end.p0(i64 8, ptr %3) #6
  ret void
}