; Function Attrs: nounwind uwtable
define internal void @merged_iter_close(ptr noundef %0) #0 {
  %2 = getelementptr inbounds nuw i8, ptr %0, i64 8
  tail call void @merged_iter_pqueue_release(ptr noundef nonnull %2) #6
  %3 = getelementptr inbounds nuw i8, ptr %0, i64 32
  %4 = load i64, ptr %3, align 8, !tbaa !31
  %.not = icmp eq i64 %4, 0
  br i1 %.not, label %._crit_edge, label %.lr.ph

._crit_edge:                                      ; preds = %.lr.ph, %1
  %5 = load ptr, ptr %0, align 8, !tbaa !30
  tail call void @reftable_free(ptr noundef %5) #6
  ret void

.lr.ph:                                           ; preds = %1, %.lr.ph
  %.09 = phi i64 [ %10, %.lr.ph ], [ 0, %1 ]
  %6 = load ptr, ptr %0, align 8, !tbaa !30
  %7 = getelementptr inbounds nuw %struct.merged_subiter, ptr %6, i64 %.09
  tail call void @reftable_iterator_destroy(ptr noundef %7) #6
  %8 = load ptr, ptr %0, align 8, !tbaa !30
  %9 = getelementptr inbounds nuw %struct.merged_subiter, ptr %8, i64 %.09, i32 1
  tail call void @reftable_record_release(ptr noundef nonnull %9) #6
  %10 = add nuw i64 %.09, 1
  %11 = load i64, ptr %3, align 8, !tbaa !31
  %12 = icmp ult i64 %10, %11
  br i1 %12, label %.lr.ph, label %._crit_edge, !llvm.loop !46
}